; ModuleID = '37/378.c'
source_filename = "37/378.c"
target datalayout = "e-m:e-p270:32:32-p271:32:32-p272:64:64-i64:64-f80:128-n8:16:32:64-S128"
target triple = "x86_64-pc-linux-gnu"

@.str = private unnamed_addr constant [3 x i8] c"%d\00", align 1
@.str.1 = private unnamed_addr constant [3 x i8] c"%s\00", align 1
@.str.2 = private unnamed_addr constant [4 x i8] c"%c\0A\00", align 1
@.str.3 = private unnamed_addr constant [4 x i8] c"no\0A\00", align 1

; Function Attrs: noinline nounwind uwtable
define dso_local i32 @main() #0 {
  %1 = alloca i32, align 4
  %2 = alloca i32, align 4
  %3 = alloca i32, align 4
  %4 = alloca i32, align 4
  %5 = alloca i64, align 8
  %6 = alloca i64, align 8
  %7 = alloca [26 x i32], align 16
  %8 = alloca [100000 x i8], align 16
  %9 = alloca i8, align 1
  store i32 0, i32* %1, align 4
  %10 = call i32 (i8*, ...) @__isoc99_scanf(i8* getelementptr inbounds ([3 x i8], [3 x i8]* @.str, i64 0, i64 0), i32* %2)
  store i32 0, i32* %3, align 4
  br label %11

11:                                               ; preds = %85, %0
  %12 = load i32, i32* %3, align 4
  %13 = load i32, i32* %2, align 4
  %14 = icmp slt i32 %12, %13
  br i1 %14, label %15, label %88

15:                                               ; preds = %11
  %16 = bitcast [26 x i32]* %7 to i8*
  call void @llvm.memset.p0i8.i64(i8* align 16 %16, i8 0, i64 104, i1 false)
  %17 = getelementptr inbounds [100000 x i8], [100000 x i8]* %8, i64 0, i64 0
  %18 = call i32 (i8*, ...) @__isoc99_scanf(i8* getelementptr inbounds ([3 x i8], [3 x i8]* @.str.1, i64 0, i64 0), i8* %17)
  %19 = getelementptr inbounds [100000 x i8], [100000 x i8]* %8, i64 0, i64 0
  %20 = call i64 @strlen(i8* %19) #4
  store i64 %20, i64* %5, align 8
  store i32 97, i32* %4, align 4
  br label %21

21:                                               ; preds = %48, %15
  %22 = load i32, i32* %4, align 4
  %23 = icmp sle i32 %22, 122
  br i1 %23, label %24, label %51

24:                                               ; preds = %21
  store i64 0, i64* %6, align 8
  br label %25

25:                                               ; preds = %44, %24
  %26 = load i64, i64* %6, align 8
  %27 = load i64, i64* %5, align 8
  %28 = icmp slt i64 %26, %27
  br i1 %28, label %29, label %47

29:                                               ; preds = %25
  %30 = load i32, i32* %4, align 4
  %31 = load i64, i64* %6, align 8
  %32 = getelementptr inbounds [100000 x i8], [100000 x i8]* %8, i64 0, i64 %31
  %33 = load i8, i8* %32, align 1
  %34 = sext i8 %33 to i32
  %35 = icmp eq i32 %30, %34
  br i1 %35, label %36, label %43

36:                                               ; preds = %29
  %37 = load i32, i32* %4, align 4
  %38 = sub nsw i32 %37, 97
  %39 = sext i32 %38 to i64
  %40 = getelementptr inbounds [26 x i32], [26 x i32]* %7, i64 0, i64 %39
  %41 = load i32, i32* %40, align 4
  %42 = add nsw i32 %41, 1
  store i32 %42, i32* %40, align 4
  br label %43

43:                                               ; preds = %36, %29
  br label %44

44:                                               ; preds = %43
  %45 = load i64, i64* %6, align 8
  %46 = add nsw i64 %45, 1
  store i64 %46, i64* %6, align 8
  br label %25

47:                                               ; preds = %25
  br label %48

48:                                               ; preds = %47
  %49 = load i32, i32* %4, align 4
  %50 = add nsw i32 %49, 1
  store i32 %50, i32* %4, align 4
  br label %21

51:                                               ; preds = %21
  store i32 0, i32* %4, align 4
  store i64 0, i64* %6, align 8
  br label %52

52:                                               ; preds = %76, %51
  %53 = load i32, i32* %4, align 4
  %54 = sext i32 %53 to i64
  %55 = load i64, i64* %5, align 8
  %56 = icmp slt i64 %54, %55
  br i1 %56, label %57, label %79

57:                                               ; preds = %52
  %58 = load i32, i32* %4, align 4
  %59 = sext i32 %58 to i64
  %60 = getelementptr inbounds [100000 x i8], [100000 x i8]* %8, i64 0, i64 %59
  %61 = load i8, i8* %60, align 1
  %62 = sext i8 %61 to i32
  %63 = sub nsw i32 %62, 97
  %64 = sext i32 %63 to i64
  %65 = getelementptr inbounds [26 x i32], [26 x i32]* %7, i64 0, i64 %64
  %66 = load i32, i32* %65, align 4
  %67 = icmp eq i32 %66, 1
  br i1 %67, label %68, label %75

68:                                               ; preds = %57
  %69 = load i32, i32* %4, align 4
  %70 = sext i32 %69 to i64
  %71 = getelementptr inbounds [100000 x i8], [100000 x i8]* %8, i64 0, i64 %70
  %72 = load i8, i8* %71, align 1
  %73 = sext i8 %72 to i32
  %74 = call i32 (i8*, ...) @printf(i8* getelementptr inbounds ([4 x i8], [4 x i8]* @.str.2, i64 0, i64 0), i32 %73)
  store i64 1, i64* %6, align 8
  br label %79

75:                                               ; preds = %57
  br label %76

76:                                               ; preds = %75
  %77 = load i32, i32* %4, align 4
  %78 = add nsw i32 %77, 1
  store i32 %78, i32* %4, align 4
  br label %52

79:                                               ; preds = %68, %52
  %80 = load i64, i64* %6, align 8
  %81 = icmp eq i64 %80, 0
  br i1 %81, label %82, label %84

82:                                               ; preds = %79
  %83 = call i32 (i8*, ...) @printf(i8* getelementptr inbounds ([4 x i8], [4 x i8]* @.str.3, i64 0, i64 0))
  br label %84

84:                                               ; preds = %82, %79
  br label %85

85:                                               ; preds = %84
  %86 = load i32, i32* %3, align 4
  %87 = add nsw i32 %86, 1
  store i32 %87, i32* %3, align 4
  br label %11

88:                                               ; preds = %11
  %89 = call i32 @getchar()
  %90 = call i32 @getchar()
  %91 = load i32, i32* %1, align 4
  ret i32 %91
}

declare dso_local i32 @__isoc99_scanf(i8*, ...) #1

; Function Attrs: argmemonly nounwind willreturn
declare void @llvm.memset.p0i8.i64(i8* nocapture writeonly, i8, i64, i1 immarg) #2

; Function Attrs: nounwind readonly
declare dso_local i64 @strlen(i8*) #3

declare dso_local i32 @printf(i8*, ...) #1

declare dso_local i32 @getchar() #1


!llvm.module.flags = !{!0}
!llvm.ident = !{!1}

!0 = !{i32 1, !"wchar_size", i32 4}
!1 = !{!"clang version 10.0.0-4ubuntu1 "}
